; Function Attrs: mustprogress uwtable
define hidden void @_ZN4cvc58internal13preprocessing6passes8BoolToBV10StatisticsC2ERNS0_18StatisticsRegistryE(ptr nocapture noundef nonnull writeonly align 8 dereferenceable(24) %this, ptr noundef nonnull align 8 dereferenceable(72) %reg) unnamed_addr #3 align 2 personality ptr @__gxx_personality_v0 {
entry:
  %ref.tmp = alloca %"class.std::__cxx11::basic_string", align 8
  %ref.tmp2 = alloca %"class.std::allocator", align 1
  %ref.tmp6 = alloca %"class.std::__cxx11::basic_string", align 8
  %ref.tmp7 = alloca %"class.std::allocator", align 1
  %ref.tmp17 = alloca %"class.std::__cxx11::basic_string", align 8
  %ref.tmp18 = alloca %"class.std::allocator", align 1
  call void @_ZNSaIcEC1Ev(ptr noundef nonnull align 1 dereferenceable(1) %ref.tmp2) #15
  %call.i9 = invoke noundef ptr @_ZNSt7__cxx1112basic_stringIcSt11char_traitsIcESaIcEE13_M_local_dataEv(ptr noundef nonnull align 8 dereferenceable(32) %ref.tmp)
          to label %call.i.noexc unwind label %lpad

call.i.noexc:                                     ; preds = %entry
  invoke void @_ZNSt7__cxx1112basic_stringIcSt11char_traitsIcESaIcEE12_Alloc_hiderC1EPcRKS3_(ptr noundef nonnull align 8 dereferenceable(8) %ref.tmp, ptr noundef %call.i9, ptr noundef nonnull align 1 dereferenceable(1) %ref.tmp2)
          to label %.noexc unwind label %lpad

.noexc:                                           ; preds = %call.i.noexc
  invoke void @_ZNSt7__cxx1112basic_stringIcSt11char_traitsIcESaIcEE12_M_constructIPKcEEvT_S8_St20forward_iterator_tag(ptr noundef nonnull align 8 dereferenceable(32) %ref.tmp, ptr noundef nonnull @.str.17, ptr noundef nonnull getelementptr inbounds ([47 x i8], ptr @.str.17, i64 0, i64 46))
          to label %invoke.cont unwind label %lpad.i

lpad.i:                                           ; preds = %.noexc
  %0 = landingpad { ptr, i32 }
          cleanup
  call void @_ZNSaIcED2Ev(ptr noundef nonnull align 1 dereferenceable(1) %ref.tmp) #15
  br label %eh.resume

invoke.cont:                                      ; preds = %.noexc
  %call = invoke ptr @_ZN4cvc58internal18StatisticsRegistry11registerIntERKNSt7__cxx1112basic_stringIcSt11char_traitsIcESaIcEEEb(ptr noundef nonnull align 8 dereferenceable(72) %reg, ptr noundef nonnull align 8 dereferenceable(32) %ref.tmp, i1 noundef zeroext true)
          to label %invoke.cont4 unwind label %lpad3

invoke.cont4:                                     ; preds = %invoke.cont
  store ptr %call, ptr %this, align 8
  call void @_ZNSt7__cxx1112basic_stringIcSt11char_traitsIcESaIcEED1Ev(ptr noundef nonnull align 8 dereferenceable(32) %ref.tmp) #15
  call void @_ZNSaIcED1Ev(ptr noundef nonnull align 1 dereferenceable(1) %ref.tmp2) #15
  %d_numTermsLowered = getelementptr inbounds i8, ptr %this, i64 8
  call void @_ZNSaIcEC1Ev(ptr noundef nonnull align 1 dereferenceable(1) %ref.tmp7) #15
  %call.i14 = invoke noundef ptr @_ZNSt7__cxx1112basic_stringIcSt11char_traitsIcESaIcEE13_M_local_dataEv(ptr noundef nonnull align 8 dereferenceable(32) %ref.tmp6)
          to label %call.i.noexc13 unwind label %lpad8

call.i.noexc13:                                   ; preds = %invoke.cont4
  invoke void @_ZNSt7__cxx1112basic_stringIcSt11char_traitsIcESaIcEE12_Alloc_hiderC1EPcRKS3_(ptr noundef nonnull align 8 dereferenceable(8) %ref.tmp6, ptr noundef %call.i14, ptr noundef nonnull align 1 dereferenceable(1) %ref.tmp7)
          to label %.noexc15 unwind label %lpad8

.noexc15:                                         ; preds = %call.i.noexc13
  invoke void @_ZNSt7__cxx1112basic_stringIcSt11char_traitsIcESaIcEE12_M_constructIPKcEEvT_S8_St20forward_iterator_tag(ptr noundef nonnull align 8 dereferenceable(32) %ref.tmp6, ptr noundef nonnull @.str.18, ptr noundef nonnull getelementptr inbounds ([48 x i8], ptr @.str.18, i64 0, i64 47))
          to label %invoke.cont9 unwind label %lpad.i12

lpad.i12:                                         ; preds = %.noexc15
  %1 = landingpad { ptr, i32 }
          cleanup
  call void @_ZNSaIcED2Ev(ptr noundef nonnull align 1 dereferenceable(1) %ref.tmp6) #15
  br label %eh.resume

invoke.cont9:                                     ; preds = %.noexc15
  %call12 = invoke ptr @_ZN4cvc58internal18StatisticsRegistry11registerIntERKNSt7__cxx1112basic_stringIcSt11char_traitsIcESaIcEEEb(ptr noundef nonnull align 8 dereferenceable(72) %reg, ptr noundef nonnull align 8 dereferenceable(32) %ref.tmp6, i1 noundef zeroext true)
          to label %invoke.cont11 unwind label %lpad10

invoke.cont11:                                    ; preds = %invoke.cont9
  store ptr %call12, ptr %d_numTermsLowered, align 8
  call void @_ZNSt7__cxx1112basic_stringIcSt11char_traitsIcESaIcEED1Ev(ptr noundef nonnull align 8 dereferenceable(32) %ref.tmp6) #15
  call void @_ZNSaIcED1Ev(ptr noundef nonnull align 1 dereferenceable(1) %ref.tmp7) #15
  call void @_ZNSaIcEC1Ev(ptr noundef nonnull align 1 dereferenceable(1) %ref.tmp18) #15
  %call.i22 = invoke noundef ptr @_ZNSt7__cxx1112basic_stringIcSt11char_traitsIcESaIcEE13_M_local_dataEv(ptr noundef nonnull align 8 dereferenceable(32) %ref.tmp17)
          to label %call.i.noexc21 unwind label %lpad19

call.i.noexc21:                                   ; preds = %invoke.cont11
  invoke void @_ZNSt7__cxx1112basic_stringIcSt11char_traitsIcESaIcEE12_Alloc_hiderC1EPcRKS3_(ptr noundef nonnull align 8 dereferenceable(8) %ref.tmp17, ptr noundef %call.i22, ptr noundef nonnull align 1 dereferenceable(1) %ref.tmp18)
          to label %.noexc23 unwind label %lpad19

.noexc23:                                         ; preds = %call.i.noexc21
  invoke void @_ZNSt7__cxx1112basic_stringIcSt11char_traitsIcESaIcEE12_M_constructIPKcEEvT_S8_St20forward_iterator_tag(ptr noundef nonnull align 8 dereferenceable(32) %ref.tmp17, ptr noundef nonnull @.str.19, ptr noundef nonnull getelementptr inbounds ([55 x i8], ptr @.str.19, i64 0, i64 54))
          to label %invoke.cont20 unwind label %lpad.i20

lpad.i20:                                         ; preds = %.noexc23
  %2 = landingpad { ptr, i32 }
          cleanup
  call void @_ZNSaIcED2Ev(ptr noundef nonnull align 1 dereferenceable(1) %ref.tmp17) #15
  br label %eh.resume

invoke.cont20:                                    ; preds = %.noexc23
  %call23 = invoke ptr @_ZN4cvc58internal18StatisticsRegistry11registerIntERKNSt7__cxx1112basic_stringIcSt11char_traitsIcESaIcEEEb(ptr noundef nonnull align 8 dereferenceable(72) %reg, ptr noundef nonnull align 8 dereferenceable(32) %ref.tmp17, i1 noundef zeroext true)
          to label %invoke.cont22 unwind label %lpad21

invoke.cont22:                                    ; preds = %invoke.cont20
  %d_numIntroducedItes = getelementptr inbounds i8, ptr %this, i64 16
  store ptr %call23, ptr %d_numIntroducedItes, align 8
  call void @_ZNSt7__cxx1112basic_stringIcSt11char_traitsIcESaIcEED1Ev(ptr noundef nonnull align 8 dereferenceable(32) %ref.tmp17) #15
  call void @_ZNSaIcED1Ev(ptr noundef nonnull align 1 dereferenceable(1) %ref.tmp18) #15
  ret void

lpad:                                             ; preds = %call.i.noexc, %entry
  %3 = landingpad { ptr, i32 }
          cleanup
  br label %eh.resume

lpad3:                                            ; preds = %invoke.cont
  %4 = landingpad { ptr, i32 }
          cleanup
  call void @_ZNSt7__cxx1112basic_stringIcSt11char_traitsIcESaIcEED1Ev(ptr noundef nonnull align 8 dereferenceable(32) %ref.tmp) #15
  br label %eh.resume

lpad8:                                            ; preds = %call.i.noexc13, %invoke.cont4
  %5 = landingpad { ptr, i32 }
          cleanup
  br label %eh.resume

lpad10:                                           ; preds = %invoke.cont9
  %6 = landingpad { ptr, i32 }
          cleanup
  call void @_ZNSt7__cxx1112basic_stringIcSt11char_traitsIcESaIcEED1Ev(ptr noundef nonnull align 8 dereferenceable(32) %ref.tmp6) #15
  br label %eh.resume

lpad19:                                           ; preds = %call.i.noexc21, %invoke.cont11
  %7 = landingpad { ptr, i32 }
          cleanup
  br label %eh.resume

lpad21:                                           ; preds = %invoke.cont20
  %8 = landingpad { ptr, i32 }
          cleanup
  call void @_ZNSt7__cxx1112basic_stringIcSt11char_traitsIcESaIcEED1Ev(ptr noundef nonnull align 8 dereferenceable(32) %ref.tmp17) #15
  br label %eh.resume

eh.resume:                                        ; preds = %lpad21, %lpad.i20, %lpad19, %lpad10, %lpad.i12, %lpad8, %lpad3, %lpad.i, %lpad
  %ref.tmp18.sink = phi ptr [ %ref.tmp2, %lpad ], [ %ref.tmp2, %lpad.i ], [ %ref.tmp2, %lpad3 ], [ %ref.tmp7, %lpad8 ], [ %ref.tmp7, %lpad.i12 ], [ %ref.tmp7, %lpad10 ], [ %ref.tmp18, %lpad19 ], [ %ref.tmp18, %lpad.i20 ], [ %ref.tmp18, %lpad21 ]
  %.pn6.pn = phi { ptr, i32 } [ %3, %lpad ], [ %0, %lpad.i ], [ %4, %lpad3 ], [ %5, %lpad8 ], [ %1, %lpad.i12 ], [ %6, %lpad10 ], [ %7, %lpad19 ], [ %2, %lpad.i20 ], [ %8, %lpad21 ]
  call void @_ZNSaIcED1Ev(ptr noundef nonnull align 1 dereferenceable(1) %ref.tmp18.sink) #15
  resume { ptr, i32 } %.pn6.pn
}